; Function Attrs: nounwind uwtable
define i32 @Abc_ObjSuppSize_rec(ptr noundef readonly captures(none) %0) local_unnamed_addr #0 {
  %2 = tail call fastcc i32 @Abc_NodeIsTravIdCurrent(ptr noundef %0)
  %.not = icmp eq i32 %2, 0
  br i1 %.not, label %3, label %.critedge

3:                                                ; preds = %1
  %.val = load ptr, ptr %0, align 8, !tbaa !3
  %4 = getelementptr i8, ptr %0, i64 16
  %.val14 = load i32, ptr %4, align 8, !tbaa !13
  %5 = getelementptr inbounds nuw i8, ptr %.val, i64 216
  %6 = load i32, ptr %5, align 8, !tbaa !14
  %7 = getelementptr inbounds nuw i8, ptr %.val, i64 224
  %8 = add nsw i32 %.val14, 1
  %9 = getelementptr inbounds nuw i8, ptr %.val, i64 228
  %10 = load i32, ptr %9, align 4, !tbaa !28
  %.not.i.not.i.i.i = icmp slt i32 %.val14, %10
  br i1 %.not.i.not.i.i.i, label %Abc_NodeSetTravIdCurrent.exit, label %11

11:                                               ; preds = %3
  %12 = load i32, ptr %7, align 8, !tbaa !29
  %13 = shl nsw i32 %12, 1
  %.not.i.i.i = icmp slt i32 %.val14, %13
  %.not.i.i.not.i.i.i = icmp sgt i32 %12, %.val14
  br i1 %.not.i.i.i, label %26, label %14

14:                                               ; preds = %11
  br i1 %.not.i.i.not.i.i.i, label %Vec_IntGrow.exit.i.i.i.i, label %15

15:                                               ; preds = %14
  %16 = getelementptr inbounds nuw i8, ptr %.val, i64 232
  %17 = load ptr, ptr %16, align 8, !tbaa !30
  %.not9.i.i.i.i.i = icmp eq ptr %17, null
  %18 = sext i32 %8 to i64
  %19 = shl nsw i64 %18, 2
  br i1 %.not9.i.i.i.i.i, label %22, label %20

20:                                               ; preds = %15
  %21 = tail call ptr @realloc(ptr noundef nonnull %17, i64 noundef %19) #21
  br label %24

22:                                               ; preds = %15
  %23 = tail call noalias ptr @malloc(i64 noundef %19) #22
  br label %24

24:                                               ; preds = %22, %20
  %25 = phi ptr [ %21, %20 ], [ %23, %22 ]
  store ptr %25, ptr %16, align 8, !tbaa !30
  br label %Vec_IntGrow.exit.sink.split.i.i.i.i

26:                                               ; preds = %11
  br i1 %.not.i.i.not.i.i.i, label %Vec_IntGrow.exit.i.i.i.i, label %27

27:                                               ; preds = %26
  %28 = getelementptr inbounds nuw i8, ptr %.val, i64 232
  %29 = load ptr, ptr %28, align 8, !tbaa !30
  %.not9.i21.i.i.i.i = icmp eq ptr %29, null
  %30 = sext i32 %13 to i64
  %31 = shl nsw i64 %30, 2
  br i1 %.not9.i21.i.i.i.i, label %34, label %32

32:                                               ; preds = %27
  %33 = tail call ptr @realloc(ptr noundef nonnull %29, i64 noundef %31) #21
  br label %36

34:                                               ; preds = %27
  %35 = tail call noalias ptr @malloc(i64 noundef %31) #22
  br label %36

36:                                               ; preds = %34, %32
  %37 = phi ptr [ %33, %32 ], [ %35, %34 ]
  store ptr %37, ptr %28, align 8, !tbaa !30
  br label %Vec_IntGrow.exit.sink.split.i.i.i.i

Vec_IntGrow.exit.sink.split.i.i.i.i:              ; preds = %36, %24
  %.sink.i.i.i.i = phi i32 [ %13, %36 ], [ %8, %24 ]
  store i32 %.sink.i.i.i.i, ptr %7, align 8, !tbaa !29
  %.pre.i.i.i = load i32, ptr %9, align 4, !tbaa !28
  br label %Vec_IntGrow.exit.i.i.i.i

Vec_IntGrow.exit.i.i.i.i:                         ; preds = %Vec_IntGrow.exit.sink.split.i.i.i.i, %26, %14
  %38 = phi i32 [ %.pre.i.i.i, %Vec_IntGrow.exit.sink.split.i.i.i.i ], [ %10, %26 ], [ %10, %14 ]
  %.not4.i.i.i = icmp sgt i32 %38, %.val14
  br i1 %.not4.i.i.i, label %._crit_edge.i.i.i.i, label %.lr.ph.i.i.i.i

.lr.ph.i.i.i.i:                                   ; preds = %Vec_IntGrow.exit.i.i.i.i
  %39 = getelementptr inbounds nuw i8, ptr %.val, i64 232
  %40 = load ptr, ptr %39, align 8, !tbaa !30
  %41 = sext i32 %38 to i64
  %42 = shl nsw i64 %41, 2
  %scevgep.i.i.i.i = getelementptr i8, ptr %40, i64 %42
  %43 = sub i32 %.val14, %38
  %44 = zext i32 %43 to i64
  %45 = shl nuw nsw i64 %44, 2
  %46 = add nuw nsw i64 %45, 4
  tail call void @llvm.memset.p0.i64(ptr noundef nonnull align 4 dereferenceable(1) %scevgep.i.i.i.i, i8 0, i64 %46, i1 false), !tbaa !31
  br label %._crit_edge.i.i.i.i

._crit_edge.i.i.i.i:                              ; preds = %.lr.ph.i.i.i.i, %Vec_IntGrow.exit.i.i.i.i
  store i32 %8, ptr %9, align 4, !tbaa !28
  br label %Abc_NodeSetTravIdCurrent.exit

Abc_NodeSetTravIdCurrent.exit:                    ; preds = %3, %._crit_edge.i.i.i.i
  %47 = getelementptr i8, ptr %.val, i64 232
  %.val.i.i.i = load ptr, ptr %47, align 8, !tbaa !30
  %48 = sext i32 %.val14 to i64
  %49 = getelementptr inbounds i32, ptr %.val.i.i.i, i64 %48
  store i32 %6, ptr %49, align 4, !tbaa !31
  %50 = getelementptr i8, ptr %0, i64 20
  %.val18 = load i32, ptr %50, align 4
  %51 = and i32 %.val18, 15
  %.not19 = icmp eq i32 %51, 2
  br i1 %.not19, label %.critedge, label %.preheader

.preheader:                                       ; preds = %Abc_NodeSetTravIdCurrent.exit
  %52 = getelementptr i8, ptr %0, i64 28
  %.val1520 = load i32, ptr %52, align 4, !tbaa !33
  %53 = icmp sgt i32 %.val1520, 0
  br i1 %53, label %.lr.ph, label %.critedge

.lr.ph:                                           ; preds = %.preheader
  %54 = getelementptr i8, ptr %0, i64 32
  br label %55

55:                                               ; preds = %.lr.ph, %55
  %indvars.iv = phi i64 [ 0, %.lr.ph ], [ %indvars.iv.next, %55 ]
  %.022 = phi i32 [ 0, %.lr.ph ], [ %64, %55 ]
  %.val16 = load ptr, ptr %0, align 8, !tbaa !3
  %.val17 = load ptr, ptr %54, align 8, !tbaa !34
  %56 = getelementptr i8, ptr %.val16, i64 32
  %.val16.val = load ptr, ptr %56, align 8, !tbaa !35
  %57 = getelementptr i8, ptr %.val16.val, i64 8
  %.val16.val.val = load ptr, ptr %57, align 8, !tbaa !36
  %58 = getelementptr inbounds nuw i32, ptr %.val17, i64 %indvars.iv
  %59 = load i32, ptr %58, align 4, !tbaa !31
  %60 = sext i32 %59 to i64
  %61 = getelementptr inbounds ptr, ptr %.val16.val.val, i64 %60
  %62 = load ptr, ptr %61, align 8, !tbaa !38
  %63 = tail call i32 @Abc_ObjSuppSize_rec(ptr noundef %62)
  %64 = add nsw i32 %63, %.022
  %indvars.iv.next = add nuw nsw i64 %indvars.iv, 1
  %.val15 = load i32, ptr %52, align 4, !tbaa !33
  %65 = sext i32 %.val15 to i64
  %66 = icmp slt i64 %indvars.iv.next, %65
  br i1 %66, label %55, label %.critedge, !llvm.loop !136

.critedge:                                        ; preds = %55, %.preheader, %Abc_NodeSetTravIdCurrent.exit, %1
  %.012 = phi i32 [ 0, %1 ], [ 1, %Abc_NodeSetTravIdCurrent.exit ], [ 0, %.preheader ], [ %64, %55 ]
  ret i32 %.012
}